target datalayout = "e-m:e-p270:32:32-p271:32:32-p272:64:64-i64:64-i128:128-f80:128-n8:16:32:64-S128"
target triple = "x86_64-pc-linux-gnu"

%struct.anon = type { double, double, double, double, double, double, [2 x double], double }
%struct._generic_N_Vector = type { ptr, ptr, ptr }
%struct._N_VectorContent_Serial = type { i64, i32, ptr }

; Function Attrs: nounwind uwtable
define internal i32 @rhsQS(i32 noundef %0, double noundef %1, ptr noundef %2, ptr noundef %3, ptr noundef %4, ptr noundef %5, ptr noundef %6, ptr noundef %7, ptr noundef %8, ptr noundef %9, ptr noundef %10, ptr noundef %11) #0 {
  %13 = alloca i32, align 4
  %14 = alloca double, align 8
  %15 = alloca ptr, align 8
  %16 = alloca ptr, align 8
  %17 = alloca ptr, align 8
  %18 = alloca ptr, align 8
  %19 = alloca ptr, align 8
  %20 = alloca ptr, align 8
  %21 = alloca ptr, align 8
  %22 = alloca ptr, align 8
  %23 = alloca ptr, align 8
  %24 = alloca ptr, align 8
  %25 = alloca double, align 8
  %26 = alloca double, align 8
  %27 = alloca double, align 8
  %28 = alloca double, align 8
  %29 = alloca double, align 8
  %30 = alloca double, align 8
  %31 = alloca ptr, align 8
  %32 = alloca double, align 8
  %33 = alloca double, align 8
  %34 = alloca double, align 8
  store i32 %0, ptr %13, align 4, !tbaa !11
  store double %1, ptr %14, align 8, !tbaa !27
  store ptr %2, ptr %15, align 8, !tbaa !15
  store ptr %3, ptr %16, align 8, !tbaa !15
  store ptr %4, ptr %17, align 8, !tbaa !17
  store ptr %5, ptr %18, align 8, !tbaa !17
  store ptr %6, ptr %19, align 8, !tbaa !15
  store ptr %7, ptr %20, align 8, !tbaa !17
  store ptr %8, ptr %21, align 8, !tbaa !19
  store ptr %9, ptr %22, align 8, !tbaa !15
  store ptr %10, ptr %23, align 8, !tbaa !15
  store ptr %11, ptr %24, align 8, !tbaa !15
  call void @llvm.lifetime.start.p0(i64 8, ptr %25) #6
  call void @llvm.lifetime.start.p0(i64 8, ptr %26) #6
  call void @llvm.lifetime.start.p0(i64 8, ptr %27) #6
  call void @llvm.lifetime.start.p0(i64 8, ptr %28) #6
  call void @llvm.lifetime.start.p0(i64 8, ptr %29) #6
  call void @llvm.lifetime.start.p0(i64 8, ptr %30) #6
  call void @llvm.lifetime.start.p0(i64 8, ptr %31) #6
  call void @llvm.lifetime.start.p0(i64 8, ptr %32) #6
  call void @llvm.lifetime.start.p0(i64 8, ptr %33) #6
  call void @llvm.lifetime.start.p0(i64 8, ptr %34) #6
  %35 = load ptr, ptr %21, align 8, !tbaa !19
  store ptr %35, ptr %31, align 8, !tbaa !19
  %36 = load ptr, ptr %31, align 8, !tbaa !19
  %37 = getelementptr inbounds nuw %struct.anon, ptr %36, i32 0, i32 1
  %38 = load double, ptr %37, align 8, !tbaa !23
  store double %38, ptr %28, align 8, !tbaa !27
  %39 = load ptr, ptr %31, align 8, !tbaa !19
  %40 = getelementptr inbounds nuw %struct.anon, ptr %39, i32 0, i32 4
  %41 = load double, ptr %40, align 8, !tbaa !24
  store double %41, ptr %29, align 8, !tbaa !27
  %42 = load ptr, ptr %31, align 8, !tbaa !19
  %43 = getelementptr inbounds nuw %struct.anon, ptr %42, i32 0, i32 2
  %44 = load double, ptr %43, align 8, !tbaa !26
  store double %44, ptr %30, align 8, !tbaa !27
  %45 = load ptr, ptr %15, align 8, !tbaa !15
  %46 = getelementptr inbounds nuw %struct._generic_N_Vector, ptr %45, i32 0, i32 0
  %47 = load ptr, ptr %46, align 8, !tbaa !30
  %48 = getelementptr inbounds nuw %struct._N_VectorContent_Serial, ptr %47, i32 0, i32 2
  %49 = load ptr, ptr %48, align 8, !tbaa !33
  %50 = getelementptr inbounds double, ptr %49, i64 3
  %51 = load double, ptr %50, align 8, !tbaa !27
  store double %51, ptr %25, align 8, !tbaa !27
  %52 = load ptr, ptr %15, align 8, !tbaa !15
  %53 = getelementptr inbounds nuw %struct._generic_N_Vector, ptr %52, i32 0, i32 0
  %54 = load ptr, ptr %53, align 8, !tbaa !30
  %55 = getelementptr inbounds nuw %struct._N_VectorContent_Serial, ptr %54, i32 0, i32 2
  %56 = load ptr, ptr %55, align 8, !tbaa !33
  %57 = getelementptr inbounds double, ptr %56, i64 4
  %58 = load double, ptr %57, align 8, !tbaa !27
  store double %58, ptr %26, align 8, !tbaa !27
  %59 = load ptr, ptr %15, align 8, !tbaa !15
  %60 = getelementptr inbounds nuw %struct._generic_N_Vector, ptr %59, i32 0, i32 0
  %61 = load ptr, ptr %60, align 8, !tbaa !30
  %62 = getelementptr inbounds nuw %struct._N_VectorContent_Serial, ptr %61, i32 0, i32 2
  %63 = load ptr, ptr %62, align 8, !tbaa !33
  %64 = getelementptr inbounds double, ptr %63, i64 5
  %65 = load double, ptr %64, align 8, !tbaa !27
  store double %65, ptr %27, align 8, !tbaa !27
  %66 = load ptr, ptr %17, align 8, !tbaa !17
  %67 = getelementptr inbounds ptr, ptr %66, i64 0
  %68 = load ptr, ptr %67, align 8, !tbaa !15
  %69 = getelementptr inbounds nuw %struct._generic_N_Vector, ptr %68, i32 0, i32 0
  %70 = load ptr, ptr %69, align 8, !tbaa !30
  %71 = getelementptr inbounds nuw %struct._N_VectorContent_Serial, ptr %70, i32 0, i32 2
  %72 = load ptr, ptr %71, align 8, !tbaa !33
  %73 = getelementptr inbounds double, ptr %72, i64 3
  %74 = load double, ptr %73, align 8, !tbaa !27
  store double %74, ptr %32, align 8, !tbaa !27
  %75 = load ptr, ptr %17, align 8, !tbaa !17
  %76 = getelementptr inbounds ptr, ptr %75, i64 0
  %77 = load ptr, ptr %76, align 8, !tbaa !15
  %78 = getelementptr inbounds nuw %struct._generic_N_Vector, ptr %77, i32 0, i32 0
  %79 = load ptr, ptr %78, align 8, !tbaa !30
  %80 = getelementptr inbounds nuw %struct._N_VectorContent_Serial, ptr %79, i32 0, i32 2
  %81 = load ptr, ptr %80, align 8, !tbaa !33
  %82 = getelementptr inbounds double, ptr %81, i64 4
  %83 = load double, ptr %82, align 8, !tbaa !27
  store double %83, ptr %33, align 8, !tbaa !27
  %84 = load ptr, ptr %17, align 8, !tbaa !17
  %85 = getelementptr inbounds ptr, ptr %84, i64 0
  %86 = load ptr, ptr %85, align 8, !tbaa !15
  %87 = getelementptr inbounds nuw %struct._generic_N_Vector, ptr %86, i32 0, i32 0
  %88 = load ptr, ptr %87, align 8, !tbaa !30
  %89 = getelementptr inbounds nuw %struct._N_VectorContent_Serial, ptr %88, i32 0, i32 2
  %90 = load ptr, ptr %89, align 8, !tbaa !33
  %91 = getelementptr inbounds double, ptr %90, i64 5
  %92 = load double, ptr %91, align 8, !tbaa !27
  store double %92, ptr %34, align 8, !tbaa !27
  %93 = load double, ptr %28, align 8, !tbaa !27
  %94 = load double, ptr %25, align 8, !tbaa !27
  %95 = fmul double %93, %94
  %96 = load double, ptr %32, align 8, !tbaa !27
  %97 = load double, ptr %29, align 8, !tbaa !27
  %98 = load double, ptr %26, align 8, !tbaa !27
  %99 = fmul double %97, %98
  %100 = load double, ptr %33, align 8, !tbaa !27
  %101 = fmul double %99, %100
  %102 = call double @llvm.fmuladd.f64(double %95, double %96, double %101)
  %103 = load double, ptr %30, align 8, !tbaa !27
  %104 = load double, ptr %27, align 8, !tbaa !27
  %105 = fmul double %103, %104
  %106 = load double, ptr %34, align 8, !tbaa !27
  %107 = call double @llvm.fmuladd.f64(double %105, double %106, double %102)
  %108 = load ptr, ptr %20, align 8, !tbaa !17
  %109 = getelementptr inbounds ptr, ptr %108, i64 0
  %110 = load ptr, ptr %109, align 8, !tbaa !15
  %111 = getelementptr inbounds nuw %struct._generic_N_Vector, ptr %110, i32 0, i32 0
  %112 = load ptr, ptr %111, align 8, !tbaa !30
  %113 = getelementptr inbounds nuw %struct._N_VectorContent_Serial, ptr %112, i32 0, i32 2
  %114 = load ptr, ptr %113, align 8, !tbaa !33
  %115 = getelementptr inbounds double, ptr %114, i64 0
  store double %107, ptr %115, align 8, !tbaa !27
  %116 = load ptr, ptr %17, align 8, !tbaa !17
  %117 = getelementptr inbounds ptr, ptr %116, i64 1
  %118 = load ptr, ptr %117, align 8, !tbaa !15
  %119 = getelementptr inbounds nuw %struct._generic_N_Vector, ptr %118, i32 0, i32 0
  %120 = load ptr, ptr %119, align 8, !tbaa !30
  %121 = getelementptr inbounds nuw %struct._N_VectorContent_Serial, ptr %120, i32 0, i32 2
  %122 = load ptr, ptr %121, align 8, !tbaa !33
  %123 = getelementptr inbounds double, ptr %122, i64 3
  %124 = load double, ptr %123, align 8, !tbaa !27
  store double %124, ptr %32, align 8, !tbaa !27
  %125 = load ptr, ptr %17, align 8, !tbaa !17
  %126 = getelementptr inbounds ptr, ptr %125, i64 1
  %127 = load ptr, ptr %126, align 8, !tbaa !15
  %128 = getelementptr inbounds nuw %struct._generic_N_Vector, ptr %127, i32 0, i32 0
  %129 = load ptr, ptr %128, align 8, !tbaa !30
  %130 = getelementptr inbounds nuw %struct._N_VectorContent_Serial, ptr %129, i32 0, i32 2
  %131 = load ptr, ptr %130, align 8, !tbaa !33
  %132 = getelementptr inbounds double, ptr %131, i64 4
  %133 = load double, ptr %132, align 8, !tbaa !27
  store double %133, ptr %33, align 8, !tbaa !27
  %134 = load ptr, ptr %17, align 8, !tbaa !17
  %135 = getelementptr inbounds ptr, ptr %134, i64 1
  %136 = load ptr, ptr %135, align 8, !tbaa !15
  %137 = getelementptr inbounds nuw %struct._generic_N_Vector, ptr %136, i32 0, i32 0
  %138 = load ptr, ptr %137, align 8, !tbaa !30
  %139 = getelementptr inbounds nuw %struct._N_VectorContent_Serial, ptr %138, i32 0, i32 2
  %140 = load ptr, ptr %139, align 8, !tbaa !33
  %141 = getelementptr inbounds double, ptr %140, i64 5
  %142 = load double, ptr %141, align 8, !tbaa !27
  store double %142, ptr %34, align 8, !tbaa !27
  %143 = load double, ptr %28, align 8, !tbaa !27
  %144 = load double, ptr %25, align 8, !tbaa !27
  %145 = fmul double %143, %144
  %146 = load double, ptr %32, align 8, !tbaa !27
  %147 = load double, ptr %29, align 8, !tbaa !27
  %148 = load double, ptr %26, align 8, !tbaa !27
  %149 = fmul double %147, %148
  %150 = load double, ptr %33, align 8, !tbaa !27
  %151 = fmul double %149, %150
  %152 = call double @llvm.fmuladd.f64(double %145, double %146, double %151)
  %153 = load double, ptr %30, align 8, !tbaa !27
  %154 = load double, ptr %27, align 8, !tbaa !27
  %155 = fmul double %153, %154
  %156 = load double, ptr %34, align 8, !tbaa !27
  %157 = call double @llvm.fmuladd.f64(double %155, double %156, double %152)
  %158 = load ptr, ptr %20, align 8, !tbaa !17
  %159 = getelementptr inbounds ptr, ptr %158, i64 1
  %160 = load ptr, ptr %159, align 8, !tbaa !15
  %161 = getelementptr inbounds nuw %struct._generic_N_Vector, ptr %160, i32 0, i32 0
  %162 = load ptr, ptr %161, align 8, !tbaa !30
  %163 = getelementptr inbounds nuw %struct._N_VectorContent_Serial, ptr %162, i32 0, i32 2
  %164 = load ptr, ptr %163, align 8, !tbaa !33
  %165 = getelementptr inbounds double, ptr %164, i64 0
  store double %157, ptr %165, align 8, !tbaa !27
  call void @llvm.lifetime.end.p0(i64 8, ptr %34) #6
  call void @llvm.lifetime.end.p0(i64 8, ptr %33) #6
  call void @llvm.lifetime.end.p0(i64 8, ptr %32) #6
  call void @llvm.lifetime.end.p0(i64 8, ptr %31) #6
  call void @llvm.lifetime.end.p0(i64 8, ptr %30) #6
  call void @llvm.lifetime.end.p0(i64 8, ptr %29) #6
  call void @llvm.lifetime.end.p0(i64 8, ptr %28) #6
  call void @llvm.lifetime.end.p0(i64 8, ptr %27) #6
  call void @llvm.lifetime.end.p0(i64 8, ptr %26) #6
  call void @llvm.lifetime.end.p0(i64 8, ptr %25) #6
  ret i32 0
}