; Function Attrs: mustprogress nofree norecurse nosync nounwind willreturn memory(readwrite, inaccessiblemem: none) uwtable
define internal noundef i32 @rhsQS(i32 %0, double %1, ptr noundef readonly captures(none) %2, ptr readnone captures(none) %3, ptr noundef readonly captures(none) %4, ptr readnone captures(none) %5, ptr readnone captures(none) %6, ptr noundef readonly captures(none) %7, ptr noundef readonly captures(none) %8, ptr readnone captures(none) %9, ptr readnone captures(none) %10, ptr readnone captures(none) %11) #5 {
  %13 = getelementptr inbounds nuw i8, ptr %8, i64 8
  %14 = load double, ptr %13, align 8, !tbaa !14
  %15 = getelementptr inbounds nuw i8, ptr %8, i64 32
  %16 = load double, ptr %15, align 8, !tbaa !15
  %17 = getelementptr inbounds nuw i8, ptr %8, i64 16
  %18 = load double, ptr %17, align 8, !tbaa !17
  %19 = load ptr, ptr %2, align 8, !tbaa !21
  %20 = getelementptr inbounds nuw i8, ptr %19, i64 16
  %21 = load ptr, ptr %20, align 8, !tbaa !24
  %22 = getelementptr inbounds nuw i8, ptr %21, i64 24
  %23 = load double, ptr %22, align 8, !tbaa !18
  %24 = getelementptr inbounds nuw i8, ptr %21, i64 32
  %25 = load double, ptr %24, align 8, !tbaa !18
  %26 = getelementptr inbounds nuw i8, ptr %21, i64 40
  %27 = load double, ptr %26, align 8, !tbaa !18
  %28 = load ptr, ptr %4, align 8, !tbaa !29
  %29 = load ptr, ptr %28, align 8, !tbaa !21
  %30 = getelementptr inbounds nuw i8, ptr %29, i64 16
  %31 = load ptr, ptr %30, align 8, !tbaa !24
  %32 = getelementptr inbounds nuw i8, ptr %31, i64 24
  %33 = load double, ptr %32, align 8, !tbaa !18
  %34 = getelementptr inbounds nuw i8, ptr %31, i64 32
  %35 = load double, ptr %34, align 8, !tbaa !18
  %36 = getelementptr inbounds nuw i8, ptr %31, i64 40
  %37 = load double, ptr %36, align 8, !tbaa !18
  %38 = fmul double %14, %23
  %39 = fmul double %16, %25
  %40 = fmul double %39, %35
  %41 = tail call double @llvm.fmuladd.f64(double %38, double %33, double %40)
  %42 = fmul double %18, %27
  %43 = tail call double @llvm.fmuladd.f64(double %42, double %37, double %41)
  %44 = load ptr, ptr %7, align 8, !tbaa !29
  %45 = load ptr, ptr %44, align 8, !tbaa !21
  %46 = getelementptr inbounds nuw i8, ptr %45, i64 16
  %47 = load ptr, ptr %46, align 8, !tbaa !24
  store double %43, ptr %47, align 8, !tbaa !18
  %48 = getelementptr inbounds nuw i8, ptr %4, i64 8
  %49 = load ptr, ptr %48, align 8, !tbaa !29
  %50 = load ptr, ptr %49, align 8, !tbaa !21
  %51 = getelementptr inbounds nuw i8, ptr %50, i64 16
  %52 = load ptr, ptr %51, align 8, !tbaa !24
  %53 = getelementptr inbounds nuw i8, ptr %52, i64 24
  %54 = load double, ptr %53, align 8, !tbaa !18
  %55 = getelementptr inbounds nuw i8, ptr %52, i64 32
  %56 = load double, ptr %55, align 8, !tbaa !18
  %57 = getelementptr inbounds nuw i8, ptr %52, i64 40
  %58 = load double, ptr %57, align 8, !tbaa !18
  %59 = fmul double %39, %56
  %60 = tail call double @llvm.fmuladd.f64(double %38, double %54, double %59)
  %61 = tail call double @llvm.fmuladd.f64(double %42, double %58, double %60)
  %62 = getelementptr inbounds nuw i8, ptr %7, i64 8
  %63 = load ptr, ptr %62, align 8, !tbaa !29
  %64 = load ptr, ptr %63, align 8, !tbaa !21
  %65 = getelementptr inbounds nuw i8, ptr %64, i64 16
  %66 = load ptr, ptr %65, align 8, !tbaa !24
  store double %61, ptr %66, align 8, !tbaa !18
  ret i32 0
}